target datalayout = "e-m:e-p270:32:32-p271:32:32-p272:64:64-i64:64-i128:128-f80:128-n8:16:32:64-S128"
target triple = "x86_64-pc-linux-gnu"

%struct.graphviz_polygon_style_t = type { i32 }

@.str.62 = private unnamed_addr constant [6 x i8] c"style\00", align 1
@.str.63 = private unnamed_addr constant [7 x i8] c"filled\00", align 1
@.str.64 = private unnamed_addr constant [7 x i8] c"radial\00", align 1
@.str.65 = private unnamed_addr constant [8 x i8] c"striped\00", align 1
@.str.66 = private unnamed_addr constant [8 x i8] c"rounded\00", align 1

; Function Attrs: nounwind uwtable
define internal ptr @checkClusterStyle(ptr noundef %0, ptr noundef %1) #0 {
  %3 = alloca ptr, align 8
  %4 = alloca ptr, align 8
  %5 = alloca ptr, align 8
  %6 = alloca ptr, align 8
  %7 = alloca %struct.graphviz_polygon_style_t, align 4
  %8 = alloca ptr, align 8
  %9 = alloca ptr, align 8
  %10 = alloca ptr, align 8
  store ptr %0, ptr %3, align 8, !tbaa !3
  store ptr %1, ptr %4, align 8, !tbaa !8
  call void @llvm.lifetime.start.p0(i64 8, ptr %5) #15
  call void @llvm.lifetime.start.p0(i64 8, ptr %6) #15
  store ptr null, ptr %6, align 8, !tbaa !230
  call void @llvm.lifetime.start.p0(i64 4, ptr %7) #15
  call void @llvm.memset.p0.i64(ptr align 4 %7, i8 0, i64 4, i1 false)
  %11 = load ptr, ptr %3, align 8, !tbaa !3
  %12 = call ptr @agget(ptr noundef %11, ptr noundef @.str.62)
  store ptr %12, ptr %5, align 8, !tbaa !9
  %13 = icmp ne ptr %12, null
  br i1 %13, label %14, label %111

14:                                               ; preds = %2
  %15 = load ptr, ptr %5, align 8, !tbaa !9
  %16 = getelementptr inbounds i8, ptr %15, i64 0
  %17 = load i8, ptr %16, align 1, !tbaa !11
  %18 = sext i8 %17 to i32
  %19 = icmp ne i32 %18, 0
  br i1 %19, label %20, label %111

20:                                               ; preds = %14
  call void @llvm.lifetime.start.p0(i64 8, ptr %8) #15
  call void @llvm.lifetime.start.p0(i64 8, ptr %9) #15
  call void @llvm.lifetime.start.p0(i64 8, ptr %10) #15
  %21 = load ptr, ptr %5, align 8, !tbaa !9
  %22 = call ptr @parse_style(ptr noundef %21)
  store ptr %22, ptr %6, align 8, !tbaa !230
  store ptr %22, ptr %8, align 8, !tbaa !230
  br label %23

23:                                               ; preds = %109, %20
  %24 = load ptr, ptr %8, align 8, !tbaa !230
  %25 = load ptr, ptr %24, align 8, !tbaa !9
  store ptr %25, ptr %10, align 8, !tbaa !9
  %26 = icmp ne ptr %25, null
  br i1 %26, label %27, label %110

27:                                               ; preds = %23
  %28 = load ptr, ptr %10, align 8, !tbaa !9
  %29 = call i32 @strcmp(ptr noundef %28, ptr noundef @.str.63) #16
  %30 = icmp eq i32 %29, 0
  br i1 %30, label %31, label %37

31:                                               ; preds = %27
  %32 = load i32, ptr %7, align 4
  %33 = and i32 %32, -2
  %34 = or i32 %33, 1
  store i32 %34, ptr %7, align 4
  %35 = load ptr, ptr %8, align 8, !tbaa !230
  %36 = getelementptr inbounds nuw ptr, ptr %35, i32 1
  store ptr %36, ptr %8, align 8, !tbaa !230
  br label %109

37:                                               ; preds = %27
  %38 = load ptr, ptr %10, align 8, !tbaa !9
  %39 = call i32 @strcmp(ptr noundef %38, ptr noundef @.str.64) #16
  %40 = icmp eq i32 %39, 0
  br i1 %40, label %41, label %61

41:                                               ; preds = %37
  %42 = load i32, ptr %7, align 4
  %43 = and i32 %42, -2
  %44 = or i32 %43, 1
  store i32 %44, ptr %7, align 4
  %45 = load i32, ptr %7, align 4
  %46 = and i32 %45, -3
  %47 = or i32 %46, 2
  store i32 %47, ptr %7, align 4
  %48 = load ptr, ptr %8, align 8, !tbaa !230
  store ptr %48, ptr %9, align 8, !tbaa !230
  br label %49

49:                                               ; preds = %56, %41
  %50 = load ptr, ptr %9, align 8, !tbaa !230
  %51 = getelementptr inbounds nuw ptr, ptr %50, i32 1
  store ptr %51, ptr %9, align 8, !tbaa !230
  %52 = load ptr, ptr %9, align 8, !tbaa !230
  %53 = load ptr, ptr %52, align 8, !tbaa !9
  %54 = load ptr, ptr %9, align 8, !tbaa !230
  %55 = getelementptr inbounds ptr, ptr %54, i64 -1
  store ptr %53, ptr %55, align 8, !tbaa !9
  br label %56

56:                                               ; preds = %49
  %57 = load ptr, ptr %9, align 8, !tbaa !230
  %58 = load ptr, ptr %57, align 8, !tbaa !9
  %59 = icmp ne ptr %58, null
  br i1 %59, label %49, label %60, !llvm.loop !238

60:                                               ; preds = %56
  br label %108

61:                                               ; preds = %37
  %62 = load ptr, ptr %10, align 8, !tbaa !9
  %63 = call i32 @strcmp(ptr noundef %62, ptr noundef @.str.65) #16
  %64 = icmp eq i32 %63, 0
  br i1 %64, label %65, label %82

65:                                               ; preds = %61
  %66 = load i32, ptr %7, align 4
  %67 = and i32 %66, -65
  %68 = or i32 %67, 64
  store i32 %68, ptr %7, align 4
  %69 = load ptr, ptr %8, align 8, !tbaa !230
  store ptr %69, ptr %9, align 8, !tbaa !230
  br label %70

70:                                               ; preds = %77, %65
  %71 = load ptr, ptr %9, align 8, !tbaa !230
  %72 = getelementptr inbounds nuw ptr, ptr %71, i32 1
  store ptr %72, ptr %9, align 8, !tbaa !230
  %73 = load ptr, ptr %9, align 8, !tbaa !230
  %74 = load ptr, ptr %73, align 8, !tbaa !9
  %75 = load ptr, ptr %9, align 8, !tbaa !230
  %76 = getelementptr inbounds ptr, ptr %75, i64 -1
  store ptr %74, ptr %76, align 8, !tbaa !9
  br label %77

77:                                               ; preds = %70
  %78 = load ptr, ptr %9, align 8, !tbaa !230
  %79 = load ptr, ptr %78, align 8, !tbaa !9
  %80 = icmp ne ptr %79, null
  br i1 %80, label %70, label %81, !llvm.loop !239

81:                                               ; preds = %77
  br label %107

82:                                               ; preds = %61
  %83 = load ptr, ptr %10, align 8, !tbaa !9
  %84 = call i32 @strcmp(ptr noundef %83, ptr noundef @.str.66) #16
  %85 = icmp eq i32 %84, 0
  br i1 %85, label %86, label %103

86:                                               ; preds = %82
  %87 = load i32, ptr %7, align 4
  %88 = and i32 %87, -5
  %89 = or i32 %88, 4
  store i32 %89, ptr %7, align 4
  %90 = load ptr, ptr %8, align 8, !tbaa !230
  store ptr %90, ptr %9, align 8, !tbaa !230
  br label %91

91:                                               ; preds = %98, %86
  %92 = load ptr, ptr %9, align 8, !tbaa !230
  %93 = getelementptr inbounds nuw ptr, ptr %92, i32 1
  store ptr %93, ptr %9, align 8, !tbaa !230
  %94 = load ptr, ptr %9, align 8, !tbaa !230
  %95 = load ptr, ptr %94, align 8, !tbaa !9
  %96 = load ptr, ptr %9, align 8, !tbaa !230
  %97 = getelementptr inbounds ptr, ptr %96, i64 -1
  store ptr %95, ptr %97, align 8, !tbaa !9
  br label %98

98:                                               ; preds = %91
  %99 = load ptr, ptr %9, align 8, !tbaa !230
  %100 = load ptr, ptr %99, align 8, !tbaa !9
  %101 = icmp ne ptr %100, null
  br i1 %101, label %91, label %102, !llvm.loop !240

102:                                              ; preds = %98
  br label %106

103:                                              ; preds = %82
  %104 = load ptr, ptr %8, align 8, !tbaa !230
  %105 = getelementptr inbounds nuw ptr, ptr %104, i32 1
  store ptr %105, ptr %8, align 8, !tbaa !230
  br label %106

106:                                              ; preds = %103, %102
  br label %107

107:                                              ; preds = %106, %81
  br label %108

108:                                              ; preds = %107, %60
  br label %109

109:                                              ; preds = %108, %31
  br label %23, !llvm.loop !241

110:                                              ; preds = %23
  call void @llvm.lifetime.end.p0(i64 8, ptr %10) #15
  call void @llvm.lifetime.end.p0(i64 8, ptr %9) #15
  call void @llvm.lifetime.end.p0(i64 8, ptr %8) #15
  br label %111

111:                                              ; preds = %110, %14, %2
  %112 = load ptr, ptr %4, align 8, !tbaa !8
  call void @llvm.memcpy.p0.p0.i64(ptr align 4 %112, ptr align 4 %7, i64 4, i1 false), !tbaa.struct !242
  %113 = load ptr, ptr %6, align 8, !tbaa !230
  call void @llvm.lifetime.end.p0(i64 4, ptr %7) #15
  call void @llvm.lifetime.end.p0(i64 8, ptr %6) #15
  call void @llvm.lifetime.end.p0(i64 8, ptr %5) #15
  ret ptr %113
}