; Function Attrs: nounwind uwtable
define internal fastcc noundef ptr @checkClusterStyle(ptr noundef %0, ptr noundef nonnull writeonly captures(none) %1) unnamed_addr #0 {
  %3 = tail call ptr @agget(ptr noundef %0, ptr noundef nonnull @.str.62) #27
  %.not = icmp eq ptr %3, null
  br i1 %.not, label %.loopexit43, label %4

4:                                                ; preds = %2
  %5 = load i8, ptr %3, align 1, !tbaa !3
  %.not36 = icmp eq i8 %5, 0
  br i1 %.not36, label %.loopexit43, label %6

6:                                                ; preds = %4
  %7 = tail call ptr @parse_style(ptr noundef nonnull %3)
  %8 = load ptr, ptr @parse_style.parse, align 16, !tbaa !97
  %.not3744 = icmp eq ptr %8, null
  br i1 %.not3744, label %.loopexit43, label %.lr.ph

.lr.ph:                                           ; preds = %6, %.loopexit
  %9 = phi ptr [ %35, %.loopexit ], [ %8, %6 ]
  %.03246 = phi ptr [ %.133, %.loopexit ], [ @parse_style.parse, %6 ]
  %.sroa.0.145 = phi i32 [ %.sroa.0.2, %.loopexit ], [ 0, %6 ]
  %10 = tail call i32 @strcmp(ptr noundef nonnull dereferenceable(1) %9, ptr noundef nonnull dereferenceable(7) @.str.63) #31
  %11 = icmp eq i32 %10, 0
  br i1 %11, label %12, label %15

12:                                               ; preds = %.lr.ph
  %13 = or i32 %.sroa.0.145, 1
  %14 = getelementptr inbounds nuw i8, ptr %.03246, i64 8
  br label %.loopexit

15:                                               ; preds = %.lr.ph
  %16 = tail call i32 @strcmp(ptr noundef nonnull dereferenceable(1) %9, ptr noundef nonnull dereferenceable(7) @.str.64) #31
  %17 = icmp eq i32 %16, 0
  br i1 %17, label %.preheader, label %20

.preheader:                                       ; preds = %15, %.preheader
  %.031 = phi ptr [ %18, %.preheader ], [ %.03246, %15 ]
  %18 = getelementptr inbounds nuw i8, ptr %.031, i64 8
  %19 = load ptr, ptr %18, align 8, !tbaa !97
  store ptr %19, ptr %.031, align 8, !tbaa !97
  %.not40 = icmp eq ptr %19, null
  br i1 %.not40, label %.loopexit.loopexit, label %.preheader, !llvm.loop !248

20:                                               ; preds = %15
  %21 = tail call i32 @strcmp(ptr noundef nonnull dereferenceable(1) %9, ptr noundef nonnull dereferenceable(8) @.str.65) #31
  %22 = icmp eq i32 %21, 0
  br i1 %22, label %.preheader49, label %25

.preheader49:                                     ; preds = %20, %.preheader49
  %.1 = phi ptr [ %23, %.preheader49 ], [ %.03246, %20 ]
  %23 = getelementptr inbounds nuw i8, ptr %.1, i64 8
  %24 = load ptr, ptr %23, align 8, !tbaa !97
  store ptr %24, ptr %.1, align 8, !tbaa !97
  %.not39 = icmp eq ptr %24, null
  br i1 %.not39, label %.loopexit.loopexit47, label %.preheader49, !llvm.loop !249

25:                                               ; preds = %20
  %26 = tail call i32 @strcmp(ptr noundef nonnull dereferenceable(1) %9, ptr noundef nonnull dereferenceable(8) @.str.66) #31
  %27 = icmp eq i32 %26, 0
  br i1 %27, label %.preheader50, label %30

.preheader50:                                     ; preds = %25, %.preheader50
  %.2 = phi ptr [ %28, %.preheader50 ], [ %.03246, %25 ]
  %28 = getelementptr inbounds nuw i8, ptr %.2, i64 8
  %29 = load ptr, ptr %28, align 8, !tbaa !97
  store ptr %29, ptr %.2, align 8, !tbaa !97
  %.not38 = icmp eq ptr %29, null
  br i1 %.not38, label %.loopexit.loopexit48, label %.preheader50, !llvm.loop !250

30:                                               ; preds = %25
  %31 = getelementptr inbounds nuw i8, ptr %.03246, i64 8
  br label %.loopexit

.loopexit.loopexit:                               ; preds = %.preheader
  %32 = or i32 %.sroa.0.145, 3
  br label %.loopexit

.loopexit.loopexit47:                             ; preds = %.preheader49
  %33 = or i32 %.sroa.0.145, 64
  br label %.loopexit

.loopexit.loopexit48:                             ; preds = %.preheader50
  %34 = or i32 %.sroa.0.145, 4
  br label %.loopexit

.loopexit:                                        ; preds = %.loopexit.loopexit48, %.loopexit.loopexit47, %.loopexit.loopexit, %30, %12
  %.sroa.0.2 = phi i32 [ %13, %12 ], [ %.sroa.0.145, %30 ], [ %32, %.loopexit.loopexit ], [ %33, %.loopexit.loopexit47 ], [ %34, %.loopexit.loopexit48 ]
  %.133 = phi ptr [ %14, %12 ], [ %31, %30 ], [ %.03246, %.loopexit.loopexit ], [ %.03246, %.loopexit.loopexit47 ], [ %.03246, %.loopexit.loopexit48 ]
  %35 = load ptr, ptr %.133, align 8, !tbaa !97
  %.not37 = icmp eq ptr %35, null
  br i1 %.not37, label %.loopexit43, label %.lr.ph, !llvm.loop !251

.loopexit43:                                      ; preds = %.loopexit, %6, %4, %2
  %.sroa.0.0 = phi i32 [ 0, %4 ], [ 0, %2 ], [ 0, %6 ], [ %.sroa.0.2, %.loopexit ]
  %.0 = phi ptr [ null, %4 ], [ null, %2 ], [ @parse_style.parse, %6 ], [ @parse_style.parse, %.loopexit ]
  store i32 %.sroa.0.0, ptr %1, align 4, !tbaa !3
  ret ptr %.0
}